; Function Attrs: mustprogress nounwind uwtable
define hidden { i32, i64 } @_ZN6hermes2vm14getPrototypeOfERNS0_7RuntimeENS0_6HandleINS0_8JSObjectEEE(ptr noundef nonnull align 8 dereferenceable(9832) %runtime, ptr readonly captures(none) %obj.coerce) local_unnamed_addr #0 {
entry:
  %retval.sroa.0.0.copyload.i.i.i.i = load i64, ptr %obj.coerce, align 8
  %and.i.i.i.i.i.i = and i64 %retval.sroa.0.0.copyload.i.i.i.i, 281474976710655
  %0 = inttoptr i64 %and.i.i.i.i.i.i to ptr
  %call = tail call ptr @_ZN6hermes2vm8JSObject14getPrototypeOfENS0_12PseudoHandleIS1_EERNS0_7RuntimeE(ptr %0, ptr noundef nonnull align 8 dereferenceable(9832) %runtime) #8
  %magicptr = ptrtoint ptr %call to i64
  switch i64 %magicptr, label %if.end16 [
    i64 -1, label %return
    i64 0, label %return.fold.split
  ]

if.end16:                                         ; preds = %entry
  %or.i.i.i.i = or i64 %magicptr, -281474976710656
  br label %return

return.fold.split:                                ; preds = %entry
  br label %return

return:                                           ; preds = %entry, %return.fold.split, %if.end16
  %retval.sroa.0.0 = phi i32 [ 1, %if.end16 ], [ 0, %entry ], [ 1, %return.fold.split ]
  %retval.sroa.4.0 = phi i64 [ %or.i.i.i.i, %if.end16 ], [ undef, %entry ], [ -1548112371908608, %return.fold.split ]
  %.fca.0.insert = insertvalue { i32, i64 } poison, i32 %retval.sroa.0.0, 0
  %.fca.1.insert = insertvalue { i32, i64 } %.fca.0.insert, i64 %retval.sroa.4.0, 1
  ret { i32, i64 } %.fca.1.insert
}